target datalayout = "e-m:e-p270:32:32-p271:32:32-p272:64:64-i64:64-i128:128-f80:128-n8:16:32:64-S128"
target triple = "x86_64-pc-linux-gnu"

%struct.H5AC_cache_image_config_t = type { i32, i8, i8, i32 }

@H5P_init_g = external global i8, align 1
@H5_libterm_g = external global i8, align 1

; Function Attrs: nounwind uwtable
define internal i32 @H5P__facc_cache_image_config_cmp(ptr noundef %0, ptr noundef %1, i64 noundef %2) #0 {
  %4 = alloca ptr, align 8
  %5 = alloca ptr, align 8
  %6 = alloca i64, align 8
  %7 = alloca ptr, align 8
  %8 = alloca ptr, align 8
  %9 = alloca i32, align 4
  store ptr %0, ptr %4, align 8, !tbaa !32
  store ptr %1, ptr %5, align 8, !tbaa !32
  store i64 %2, ptr %6, align 8, !tbaa !8
  call void @llvm.lifetime.start.p0(i64 8, ptr %7) #10
  %10 = load ptr, ptr %4, align 8, !tbaa !32
  store ptr %10, ptr %7, align 8, !tbaa !42
  call void @llvm.lifetime.start.p0(i64 8, ptr %8) #10
  %11 = load ptr, ptr %5, align 8, !tbaa !32
  store ptr %11, ptr %8, align 8, !tbaa !42
  call void @llvm.lifetime.start.p0(i64 4, ptr %9) #10
  store i32 0, ptr %9, align 4, !tbaa !20
  %12 = load i8, ptr @H5P_init_g, align 1, !tbaa !22, !range !24, !noundef !25
  %13 = trunc i8 %12 to i1
  br i1 %13, label %18, label %14

14:                                               ; preds = %3
  %15 = load i8, ptr @H5_libterm_g, align 1, !tbaa !22, !range !24, !noundef !25
  %16 = trunc i8 %15 to i1
  %17 = xor i1 %16, true
  br label %18

18:                                               ; preds = %14, %3
  %19 = phi i1 [ true, %3 ], [ %17, %14 ]
  %20 = xor i1 %19, true
  %21 = xor i1 %20, true
  %22 = zext i1 %21 to i32
  %23 = sext i32 %22 to i64
  %24 = call i64 @llvm.expect.i64(i64 %23, i64 1)
  %25 = icmp ne i64 %24, 0
  br i1 %25, label %26, label %160

26:                                               ; preds = %18
  %27 = load ptr, ptr %7, align 8, !tbaa !42
  %28 = icmp eq ptr %27, null
  br i1 %28, label %29, label %36

29:                                               ; preds = %26
  %30 = load ptr, ptr %8, align 8, !tbaa !42
  %31 = icmp ne ptr %30, null
  br i1 %31, label %32, label %36

32:                                               ; preds = %29
  br label %33

33:                                               ; preds = %32
  store i32 -1, ptr %9, align 4, !tbaa !20
  br label %159

34:                                               ; No predecessors!
  br label %35

35:                                               ; preds = %34
  br label %36

36:                                               ; preds = %35, %29, %26
  %37 = load ptr, ptr %7, align 8, !tbaa !42
  %38 = icmp ne ptr %37, null
  br i1 %38, label %39, label %46

39:                                               ; preds = %36
  %40 = load ptr, ptr %8, align 8, !tbaa !42
  %41 = icmp eq ptr %40, null
  br i1 %41, label %42, label %46

42:                                               ; preds = %39
  br label %43

43:                                               ; preds = %42
  store i32 1, ptr %9, align 4, !tbaa !20
  br label %159

44:                                               ; No predecessors!
  br label %45

45:                                               ; preds = %44
  br label %46

46:                                               ; preds = %45, %39, %36
  %47 = load ptr, ptr %7, align 8, !tbaa !42
  %48 = getelementptr inbounds nuw %struct.H5AC_cache_image_config_t, ptr %47, i32 0, i32 0
  %49 = load i32, ptr %48, align 4, !tbaa !44
  %50 = load ptr, ptr %8, align 8, !tbaa !42
  %51 = getelementptr inbounds nuw %struct.H5AC_cache_image_config_t, ptr %50, i32 0, i32 0
  %52 = load i32, ptr %51, align 4, !tbaa !44
  %53 = icmp slt i32 %49, %52
  br i1 %53, label %54, label %58

54:                                               ; preds = %46
  br label %55

55:                                               ; preds = %54
  store i32 -1, ptr %9, align 4, !tbaa !20
  br label %159

56:                                               ; No predecessors!
  br label %57

57:                                               ; preds = %56
  br label %58

58:                                               ; preds = %57, %46
  %59 = load ptr, ptr %7, align 8, !tbaa !42
  %60 = getelementptr inbounds nuw %struct.H5AC_cache_image_config_t, ptr %59, i32 0, i32 0
  %61 = load i32, ptr %60, align 4, !tbaa !44
  %62 = load ptr, ptr %8, align 8, !tbaa !42
  %63 = getelementptr inbounds nuw %struct.H5AC_cache_image_config_t, ptr %62, i32 0, i32 0
  %64 = load i32, ptr %63, align 4, !tbaa !44
  %65 = icmp sgt i32 %61, %64
  br i1 %65, label %66, label %70

66:                                               ; preds = %58
  br label %67

67:                                               ; preds = %66
  store i32 1, ptr %9, align 4, !tbaa !20
  br label %159

68:                                               ; No predecessors!
  br label %69

69:                                               ; preds = %68
  br label %70

70:                                               ; preds = %69, %58
  %71 = load ptr, ptr %7, align 8, !tbaa !42
  %72 = getelementptr inbounds nuw %struct.H5AC_cache_image_config_t, ptr %71, i32 0, i32 1
  %73 = load i8, ptr %72, align 4, !tbaa !139, !range !24, !noundef !25
  %74 = trunc i8 %73 to i1
  %75 = zext i1 %74 to i32
  %76 = load ptr, ptr %8, align 8, !tbaa !42
  %77 = getelementptr inbounds nuw %struct.H5AC_cache_image_config_t, ptr %76, i32 0, i32 1
  %78 = load i8, ptr %77, align 4, !tbaa !139, !range !24, !noundef !25
  %79 = trunc i8 %78 to i1
  %80 = zext i1 %79 to i32
  %81 = icmp slt i32 %75, %80
  br i1 %81, label %82, label %86

82:                                               ; preds = %70
  br label %83

83:                                               ; preds = %82
  store i32 -1, ptr %9, align 4, !tbaa !20
  br label %159

84:                                               ; No predecessors!
  br label %85

85:                                               ; preds = %84
  br label %86

86:                                               ; preds = %85, %70
  %87 = load ptr, ptr %7, align 8, !tbaa !42
  %88 = getelementptr inbounds nuw %struct.H5AC_cache_image_config_t, ptr %87, i32 0, i32 1
  %89 = load i8, ptr %88, align 4, !tbaa !139, !range !24, !noundef !25
  %90 = trunc i8 %89 to i1
  %91 = zext i1 %90 to i32
  %92 = load ptr, ptr %8, align 8, !tbaa !42
  %93 = getelementptr inbounds nuw %struct.H5AC_cache_image_config_t, ptr %92, i32 0, i32 1
  %94 = load i8, ptr %93, align 4, !tbaa !139, !range !24, !noundef !25
  %95 = trunc i8 %94 to i1
  %96 = zext i1 %95 to i32
  %97 = icmp sgt i32 %91, %96
  br i1 %97, label %98, label %102

98:                                               ; preds = %86
  br label %99

99:                                               ; preds = %98
  store i32 1, ptr %9, align 4, !tbaa !20
  br label %159

100:                                              ; No predecessors!
  br label %101

101:                                              ; preds = %100
  br label %102

102:                                              ; preds = %101, %86
  %103 = load ptr, ptr %7, align 8, !tbaa !42
  %104 = getelementptr inbounds nuw %struct.H5AC_cache_image_config_t, ptr %103, i32 0, i32 2
  %105 = load i8, ptr %104, align 1, !tbaa !140, !range !24, !noundef !25
  %106 = trunc i8 %105 to i1
  %107 = zext i1 %106 to i32
  %108 = load ptr, ptr %8, align 8, !tbaa !42
  %109 = getelementptr inbounds nuw %struct.H5AC_cache_image_config_t, ptr %108, i32 0, i32 2
  %110 = load i8, ptr %109, align 1, !tbaa !140, !range !24, !noundef !25
  %111 = trunc i8 %110 to i1
  %112 = zext i1 %111 to i32
  %113 = icmp slt i32 %107, %112
  br i1 %113, label %114, label %118

114:                                              ; preds = %102
  br label %115

115:                                              ; preds = %114
  store i32 -1, ptr %9, align 4, !tbaa !20
  br label %159

116:                                              ; No predecessors!
  br label %117

117:                                              ; preds = %116
  br label %118

118:                                              ; preds = %117, %102
  %119 = load ptr, ptr %7, align 8, !tbaa !42
  %120 = getelementptr inbounds nuw %struct.H5AC_cache_image_config_t, ptr %119, i32 0, i32 2
  %121 = load i8, ptr %120, align 1, !tbaa !140, !range !24, !noundef !25
  %122 = trunc i8 %121 to i1
  %123 = zext i1 %122 to i32
  %124 = load ptr, ptr %8, align 8, !tbaa !42
  %125 = getelementptr inbounds nuw %struct.H5AC_cache_image_config_t, ptr %124, i32 0, i32 2
  %126 = load i8, ptr %125, align 1, !tbaa !140, !range !24, !noundef !25
  %127 = trunc i8 %126 to i1
  %128 = zext i1 %127 to i32
  %129 = icmp sgt i32 %123, %128
  br i1 %129, label %130, label %134

130:                                              ; preds = %118
  br label %131

131:                                              ; preds = %130
  store i32 1, ptr %9, align 4, !tbaa !20
  br label %159

132:                                              ; No predecessors!
  br label %133

133:                                              ; preds = %132
  br label %134

134:                                              ; preds = %133, %118
  %135 = load ptr, ptr %7, align 8, !tbaa !42
  %136 = getelementptr inbounds nuw %struct.H5AC_cache_image_config_t, ptr %135, i32 0, i32 3
  %137 = load i32, ptr %136, align 4, !tbaa !141
  %138 = load ptr, ptr %8, align 8, !tbaa !42
  %139 = getelementptr inbounds nuw %struct.H5AC_cache_image_config_t, ptr %138, i32 0, i32 3
  %140 = load i32, ptr %139, align 4, !tbaa !141
  %141 = icmp slt i32 %137, %140
  br i1 %141, label %142, label %146

142:                                              ; preds = %134
  br label %143

143:                                              ; preds = %142
  store i32 -1, ptr %9, align 4, !tbaa !20
  br label %159

144:                                              ; No predecessors!
  br label %145

145:                                              ; preds = %144
  br label %146

146:                                              ; preds = %145, %134
  %147 = load ptr, ptr %7, align 8, !tbaa !42
  %148 = getelementptr inbounds nuw %struct.H5AC_cache_image_config_t, ptr %147, i32 0, i32 3
  %149 = load i32, ptr %148, align 4, !tbaa !141
  %150 = load ptr, ptr %8, align 8, !tbaa !42
  %151 = getelementptr inbounds nuw %struct.H5AC_cache_image_config_t, ptr %150, i32 0, i32 3
  %152 = load i32, ptr %151, align 4, !tbaa !141
  %153 = icmp sgt i32 %149, %152
  br i1 %153, label %154, label %158

154:                                              ; preds = %146
  br label %155

155:                                              ; preds = %154
  store i32 1, ptr %9, align 4, !tbaa !20
  br label %159

156:                                              ; No predecessors!
  br label %157

157:                                              ; preds = %156
  br label %158

158:                                              ; preds = %157, %146
  br label %159

159:                                              ; preds = %158, %155, %143, %131, %115, %99, %83, %67, %55, %43, %33
  br label %160

160:                                              ; preds = %159, %18
  %161 = load i32, ptr %9, align 4, !tbaa !20
  call void @llvm.lifetime.end.p0(i64 4, ptr %9) #10
  call void @llvm.lifetime.end.p0(i64 8, ptr %8) #10
  call void @llvm.lifetime.end.p0(i64 8, ptr %7) #10
  ret i32 %161
}