; Function Attrs: mustprogress nofree norecurse nosync nounwind willreturn memory(read, inaccessiblemem: none) uwtable
define internal range(i32 -1, 2) i32 @H5P__facc_cache_image_config_cmp(ptr noundef readonly captures(address_is_null) %0, ptr noundef readonly captures(address_is_null) %1, i64 %2) #10 {
  %4 = load i8, ptr @H5P_init_g, align 1, !tbaa !16, !range !18, !noundef !19
  %5 = trunc nuw i8 %4 to i1
  %6 = load i8, ptr @H5_libterm_g, align 1, !range !18
  %7 = trunc nuw i8 %6 to i1
  %8 = xor i1 %7, true
  %9 = select i1 %5, i1 true, i1 %8
  br i1 %9, label %10, label %46, !prof !20

10:                                               ; preds = %3
  %11 = icmp eq ptr %0, null
  %12 = icmp ne ptr %1, null
  %or.cond = and i1 %11, %12
  br i1 %or.cond, label %46, label %13

13:                                               ; preds = %10
  %14 = icmp ne ptr %0, null
  %15 = icmp eq ptr %1, null
  %or.cond3 = and i1 %14, %15
  br i1 %or.cond3, label %46, label %16

16:                                               ; preds = %13
  %17 = load i32, ptr %0, align 4, !tbaa !35
  %18 = load i32, ptr %1, align 4, !tbaa !35
  %19 = icmp slt i32 %17, %18
  br i1 %19, label %46, label %20

20:                                               ; preds = %16
  %21 = icmp sgt i32 %17, %18
  br i1 %21, label %46, label %22

22:                                               ; preds = %20
  %23 = getelementptr inbounds nuw i8, ptr %0, i64 4
  %24 = load i8, ptr %23, align 4, !tbaa !123, !range !18, !noundef !19
  %25 = getelementptr inbounds nuw i8, ptr %1, i64 4
  %26 = load i8, ptr %25, align 4, !tbaa !123, !range !18, !noundef !19
  %27 = icmp samesign ult i8 %24, %26
  br i1 %27, label %46, label %28

28:                                               ; preds = %22
  %29 = icmp samesign ugt i8 %24, %26
  br i1 %29, label %46, label %30

30:                                               ; preds = %28
  %31 = getelementptr inbounds nuw i8, ptr %0, i64 5
  %32 = load i8, ptr %31, align 1, !tbaa !124, !range !18, !noundef !19
  %33 = getelementptr inbounds nuw i8, ptr %1, i64 5
  %34 = load i8, ptr %33, align 1, !tbaa !124, !range !18, !noundef !19
  %35 = icmp samesign ult i8 %32, %34
  br i1 %35, label %46, label %36

36:                                               ; preds = %30
  %37 = icmp samesign ugt i8 %32, %34
  br i1 %37, label %46, label %38

38:                                               ; preds = %36
  %39 = getelementptr inbounds nuw i8, ptr %0, i64 8
  %40 = load i32, ptr %39, align 4, !tbaa !125
  %41 = getelementptr inbounds nuw i8, ptr %1, i64 8
  %42 = load i32, ptr %41, align 4, !tbaa !125
  %43 = icmp slt i32 %40, %42
  br i1 %43, label %46, label %44

44:                                               ; preds = %38
  %45 = icmp sgt i32 %40, %42
  %spec.select = zext i1 %45 to i32
  br label %46

46:                                               ; preds = %44, %38, %36, %30, %28, %22, %20, %16, %13, %10, %3
  %.0 = phi i32 [ 0, %3 ], [ -1, %10 ], [ 1, %13 ], [ -1, %16 ], [ 1, %20 ], [ -1, %22 ], [ 1, %28 ], [ -1, %30 ], [ 1, %36 ], [ -1, %38 ], [ %spec.select, %44 ]
  ret i32 %.0
}